Certificate:
    Data:
        Version: 1 (0x0)
        Serial Number: 102 (0x66)
        Signature Algorithm: md5WithRSAEncryption
        Issuer: C=SG, ST=Some-State, O=SUTD, OU=ISTD, CN=Liang Shuailong/emailAddress=liangshuailong@gmail.com
        Validity
            Not Before: Apr  7 04:36:03 2017 GMT
            Not After : Apr  7 04:36:03 2018 GMT
        Subject: C=SG, ST=Singapore, L=Singapore, O=SUTD, CN=Ruth/emailAddress=ruthwongny@gmail.com
        Subject Public Key Info:
            Public Key Algorithm: rsaEncryption
            RSA Public Key: (1024 bit)
                Modulus (1024 bit):
                    00:b8:f6:5d:72:48:ea:89:22:12:ab:5a:03:0f:9f:
                    31:f4:83:9d:74:aa:7b:6c:d9:0f:e0:ab:87:29:4f:
                    7e:eb:c6:3a:da:0d:0f:d1:9e:cf:29:36:5c:6e:af:
                    36:42:f5:b3:ab:d9:e3:8f:a3:dc:7a:08:1e:bc:6c:
                    5b:12:3e:84:05:17:41:3d:0d:87:4b:ed:b4:ba:77:
                    82:f9:fa:02:b2:bd:4a:2f:e4:92:a5:0d:84:91:86:
                    7d:a5:10:12:1d:bc:f5:fc:30:eb:3b:44:54:11:50:
                    ec:42:bc:42:9b:3d:4b:a8:05:c5:cb:f6:36:3b:29:
                    91:26:03:c7:02:54:d0:bd:cb
                Exponent: 65537 (0x10001)
    Signature Algorithm: md5WithRSAEncryption
        c8:d6:fb:62:e2:e7:bd:d9:9c:80:2e:88:cc:50:90:40:10:ca:
        f6:f5:f0:e8:de:09:c6:2a:82:1f:23:3b:62:e2:dc:b7:62:93:
        5e:32:c9:12:d8:40:7f:7e:38:57:5a:27:96:6a:6d:e2:b5:53:
        9c:e7:36:4a:20:a1:18:e5:76:0e:66:e8:d6:1e:74:d5:30:cb:
        9c:53:51:35:79:db:54:0f:77:49:e5:da:ff:fd:02:fe:b1:c1:
        6e:4d:80:ed:a3:6f:a1:3c:c7:8f:68:06:5b:b7:a3:2e:7b:cd:
        25:10:3b:e2:de:59:58:15:37:70:70:34:f4:13:3d:3b:ef:0a:
        3e:de
-----BEGIN CERTIFICATE-----
MIICazCCAdQCAWYwDQYJKoZIhvcNAQEEBQAwgYMxCzAJBgNVBAYTAlNHMRMwEQYD
VQQIEwpTb21lLVN0YXRlMQ0wCwYDVQQKEwRTVVREMQ0wCwYDVQQLEwRJU1REMRgw
FgYDVQQDEw9MaWFuZyBTaHVhaWxvbmcxJzAlBgkqhkiG9w0BCQEWGGxpYW5nc2h1
YWlsb25nQGdtYWlsLmNvbTAeFw0xNzA0MDcwNDM2MDNaFw0xODA0MDcwNDM2MDNa
MHgxCzAJBgNVBAYTAlNHMRIwEAYDVQQIEwlTaW5nYXBvcmUxEjAQBgNVBAcTCVNp
bmdhcG9yZTENMAsGA1UEChMEU1VURDENMAsGA1UEAxMEUnV0aDEjMCEGCSqGSIb3
DQEJARYUcnV0aHdvbmdueUBnbWFpbC5jb20wgZ8wDQYJKoZIhvcNAQEBBQADgY0A
MIGJAoGBALj2XXJI6okiEqtaAw+fMfSDnXSqe2zZD+CrhylPfuvGOtoND9Gezyk2
XG6vNkL1s6vZ44+j3HoIHrxsWxI+hAUXQT0Nh0vttLp3gvn6ArK9Si/kkqUNhJGG
faUQEh289fww6ztEVBFQ7EK8Qps9S6gFxcv2NjspkSYDxwJU0L3LAgMBAAEwDQYJ
KoZIhvcNAQEEBQADgYEAyNb7YuLnvdmcgC6IzFCQQBDK9vXw6N4JxiqCHyM7YuLc
t2KTXjLJEthAf344V1onlmpt4rVTnOc2SiChGOV2Dmbo1h501TDLnFNRNXnbVA93
SeXa//0C/rHBbk2A7aNvoTzHj2gGW7ejLnvNJRA74t5ZWBU3cHA09BM9O+8KPt4=
-----END CERTIFICATE-----
